target datalayout = "e-m:e-p270:32:32-p271:32:32-p272:64:64-i64:64-i128:128-f80:128-n8:16:32:64-S128"
target triple = "x86_64-pc-linux-gnu"

%struct.pollfd = type { i32, i16, i16 }
%struct.curl_pollfds = type { ptr, i32, i32, i8 }

@Curl_cfree = external global ptr, align 8
@Curl_ccalloc = external global ptr, align 8

; Function Attrs: nounwind uwtable
define internal i32 @cpfds_increase(ptr noundef %0, i32 noundef %1) #0 {
  %3 = alloca i32, align 4
  %4 = alloca ptr, align 8
  %5 = alloca i32, align 4
  %6 = alloca ptr, align 8
  %7 = alloca i32, align 4
  %8 = alloca i32, align 4
  store ptr %0, ptr %4, align 8, !tbaa !25
  store i32 %1, ptr %5, align 4, !tbaa !8
  call void @llvm.lifetime.start.p0(i64 8, ptr %6) #6
  call void @llvm.lifetime.start.p0(i64 4, ptr %7) #6
  %9 = load ptr, ptr %4, align 8, !tbaa !25
  %10 = getelementptr inbounds nuw %struct.curl_pollfds, ptr %9, i32 0, i32 2
  %11 = load i32, ptr %10, align 4, !tbaa !29
  %12 = load i32, ptr %5, align 4, !tbaa !8
  %13 = add i32 %11, %12
  store i32 %13, ptr %7, align 4, !tbaa !8
  %14 = load ptr, ptr @Curl_ccalloc, align 8, !tbaa !30
  %15 = load i32, ptr %7, align 4, !tbaa !8
  %16 = zext i32 %15 to i64
  %17 = call ptr %14(i64 noundef %16, i64 noundef 8)
  store ptr %17, ptr %6, align 8, !tbaa !15
  %18 = load ptr, ptr %6, align 8, !tbaa !15
  %19 = icmp ne ptr %18, null
  br i1 %19, label %21, label %20

20:                                               ; preds = %2
  store i32 27, ptr %3, align 4
  store i32 1, ptr %8, align 4
  br label %54

21:                                               ; preds = %2
  %22 = load ptr, ptr %6, align 8, !tbaa !15
  %23 = load ptr, ptr %4, align 8, !tbaa !25
  %24 = getelementptr inbounds nuw %struct.curl_pollfds, ptr %23, i32 0, i32 0
  %25 = load ptr, ptr %24, align 8, !tbaa !27
  %26 = load ptr, ptr %4, align 8, !tbaa !25
  %27 = getelementptr inbounds nuw %struct.curl_pollfds, ptr %26, i32 0, i32 2
  %28 = load i32, ptr %27, align 4, !tbaa !29
  %29 = zext i32 %28 to i64
  %30 = mul i64 %29, 8
  call void @llvm.memcpy.p0.p0.i64(ptr align 4 %22, ptr align 4 %25, i64 %30, i1 false)
  %31 = load ptr, ptr %4, align 8, !tbaa !25
  %32 = getelementptr inbounds nuw %struct.curl_pollfds, ptr %31, i32 0, i32 3
  %33 = load i8, ptr %32, align 8
  %34 = and i8 %33, 1
  %35 = zext i8 %34 to i32
  %36 = icmp ne i32 %35, 0
  br i1 %36, label %37, label %42

37:                                               ; preds = %21
  %38 = load ptr, ptr @Curl_cfree, align 8, !tbaa !30
  %39 = load ptr, ptr %4, align 8, !tbaa !25
  %40 = getelementptr inbounds nuw %struct.curl_pollfds, ptr %39, i32 0, i32 0
  %41 = load ptr, ptr %40, align 8, !tbaa !27
  call void %38(ptr noundef %41)
  br label %42

42:                                               ; preds = %37, %21
  %43 = load ptr, ptr %6, align 8, !tbaa !15
  %44 = load ptr, ptr %4, align 8, !tbaa !25
  %45 = getelementptr inbounds nuw %struct.curl_pollfds, ptr %44, i32 0, i32 0
  store ptr %43, ptr %45, align 8, !tbaa !27
  %46 = load i32, ptr %7, align 4, !tbaa !8
  %47 = load ptr, ptr %4, align 8, !tbaa !25
  %48 = getelementptr inbounds nuw %struct.curl_pollfds, ptr %47, i32 0, i32 2
  store i32 %46, ptr %48, align 4, !tbaa !29
  %49 = load ptr, ptr %4, align 8, !tbaa !25
  %50 = getelementptr inbounds nuw %struct.curl_pollfds, ptr %49, i32 0, i32 3
  %51 = load i8, ptr %50, align 8
  %52 = and i8 %51, -2
  %53 = or i8 %52, 1
  store i8 %53, ptr %50, align 8
  store i32 0, ptr %3, align 4
  store i32 1, ptr %8, align 4
  br label %54

54:                                               ; preds = %42, %20
  call void @llvm.lifetime.end.p0(i64 4, ptr %7) #6
  call void @llvm.lifetime.end.p0(i64 8, ptr %6) #6
  %55 = load i32, ptr %3, align 4
  ret i32 %55
}

; Function Attrs: nounwind uwtable
define internal i32 @cpfds_add_sock(ptr noundef %0, i32 noundef %1, i16 noundef signext %2, i1 noundef zeroext %3) #0 {
  %5 = alloca i32, align 4
  %6 = alloca ptr, align 8
  %7 = alloca i32, align 4
  %8 = alloca i16, align 2
  %9 = alloca i8, align 1
  %10 = alloca i32, align 4
  %11 = alloca i32, align 4
  store ptr %0, ptr %6, align 8, !tbaa !25
  store i32 %1, ptr %7, align 4, !tbaa !8
  store i16 %2, ptr %8, align 2, !tbaa !31
  %12 = zext i1 %3 to i8
  store i8 %12, ptr %9, align 1, !tbaa !18
  call void @llvm.lifetime.start.p0(i64 4, ptr %10) #6
  %13 = load i8, ptr %9, align 1, !tbaa !18, !range !22, !noundef !23
  %14 = trunc i8 %13 to i1
  br i1 %14, label %15, label %58

15:                                               ; preds = %4
  %16 = load ptr, ptr %6, align 8, !tbaa !25
  %17 = getelementptr inbounds nuw %struct.curl_pollfds, ptr %16, i32 0, i32 1
  %18 = load i32, ptr %17, align 8, !tbaa !32
  %19 = icmp ule i32 %18, 2147483647
  br i1 %19, label %20, label %58

20:                                               ; preds = %15
  %21 = load ptr, ptr %6, align 8, !tbaa !25
  %22 = getelementptr inbounds nuw %struct.curl_pollfds, ptr %21, i32 0, i32 1
  %23 = load i32, ptr %22, align 8, !tbaa !32
  %24 = sub nsw i32 %23, 1
  store i32 %24, ptr %10, align 4, !tbaa !8
  br label %25

25:                                               ; preds = %54, %20
  %26 = load i32, ptr %10, align 4, !tbaa !8
  %27 = icmp sge i32 %26, 0
  br i1 %27, label %28, label %57

28:                                               ; preds = %25
  %29 = load i32, ptr %7, align 4, !tbaa !8
  %30 = load ptr, ptr %6, align 8, !tbaa !25
  %31 = getelementptr inbounds nuw %struct.curl_pollfds, ptr %30, i32 0, i32 0
  %32 = load ptr, ptr %31, align 8, !tbaa !27
  %33 = load i32, ptr %10, align 4, !tbaa !8
  %34 = sext i32 %33 to i64
  %35 = getelementptr inbounds %struct.pollfd, ptr %32, i64 %34
  %36 = getelementptr inbounds nuw %struct.pollfd, ptr %35, i32 0, i32 0
  %37 = load i32, ptr %36, align 4, !tbaa !10
  %38 = icmp eq i32 %29, %37
  br i1 %38, label %39, label %53

39:                                               ; preds = %28
  %40 = load i16, ptr %8, align 2, !tbaa !31
  %41 = sext i16 %40 to i32
  %42 = load ptr, ptr %6, align 8, !tbaa !25
  %43 = getelementptr inbounds nuw %struct.curl_pollfds, ptr %42, i32 0, i32 0
  %44 = load ptr, ptr %43, align 8, !tbaa !27
  %45 = load i32, ptr %10, align 4, !tbaa !8
  %46 = sext i32 %45 to i64
  %47 = getelementptr inbounds %struct.pollfd, ptr %44, i64 %46
  %48 = getelementptr inbounds nuw %struct.pollfd, ptr %47, i32 0, i32 1
  %49 = load i16, ptr %48, align 4, !tbaa !13
  %50 = sext i16 %49 to i32
  %51 = or i32 %50, %41
  %52 = trunc i32 %51 to i16
  store i16 %52, ptr %48, align 4, !tbaa !13
  store i32 0, ptr %5, align 4
  store i32 1, ptr %11, align 4
  br label %97

53:                                               ; preds = %28
  br label %54

54:                                               ; preds = %53
  %55 = load i32, ptr %10, align 4, !tbaa !8
  %56 = add nsw i32 %55, -1
  store i32 %56, ptr %10, align 4, !tbaa !8
  br label %25, !llvm.loop !33

57:                                               ; preds = %25
  br label %58

58:                                               ; preds = %57, %15, %4
  %59 = load ptr, ptr %6, align 8, !tbaa !25
  %60 = getelementptr inbounds nuw %struct.curl_pollfds, ptr %59, i32 0, i32 1
  %61 = load i32, ptr %60, align 8, !tbaa !32
  %62 = load ptr, ptr %6, align 8, !tbaa !25
  %63 = getelementptr inbounds nuw %struct.curl_pollfds, ptr %62, i32 0, i32 2
  %64 = load i32, ptr %63, align 4, !tbaa !29
  %65 = icmp uge i32 %61, %64
  br i1 %65, label %66, label %72

66:                                               ; preds = %58
  %67 = load ptr, ptr %6, align 8, !tbaa !25
  %68 = call i32 @cpfds_increase(ptr noundef %67, i32 noundef 100)
  %69 = icmp ne i32 %68, 0
  br i1 %69, label %70, label %71

70:                                               ; preds = %66
  store i32 27, ptr %5, align 4
  store i32 1, ptr %11, align 4
  br label %97

71:                                               ; preds = %66
  br label %72

72:                                               ; preds = %71, %58
  %73 = load i32, ptr %7, align 4, !tbaa !8
  %74 = load ptr, ptr %6, align 8, !tbaa !25
  %75 = getelementptr inbounds nuw %struct.curl_pollfds, ptr %74, i32 0, i32 0
  %76 = load ptr, ptr %75, align 8, !tbaa !27
  %77 = load ptr, ptr %6, align 8, !tbaa !25
  %78 = getelementptr inbounds nuw %struct.curl_pollfds, ptr %77, i32 0, i32 1
  %79 = load i32, ptr %78, align 8, !tbaa !32
  %80 = zext i32 %79 to i64
  %81 = getelementptr inbounds nuw %struct.pollfd, ptr %76, i64 %80
  %82 = getelementptr inbounds nuw %struct.pollfd, ptr %81, i32 0, i32 0
  store i32 %73, ptr %82, align 4, !tbaa !10
  %83 = load i16, ptr %8, align 2, !tbaa !31
  %84 = load ptr, ptr %6, align 8, !tbaa !25
  %85 = getelementptr inbounds nuw %struct.curl_pollfds, ptr %84, i32 0, i32 0
  %86 = load ptr, ptr %85, align 8, !tbaa !27
  %87 = load ptr, ptr %6, align 8, !tbaa !25
  %88 = getelementptr inbounds nuw %struct.curl_pollfds, ptr %87, i32 0, i32 1
  %89 = load i32, ptr %88, align 8, !tbaa !32
  %90 = zext i32 %89 to i64
  %91 = getelementptr inbounds nuw %struct.pollfd, ptr %86, i64 %90
  %92 = getelementptr inbounds nuw %struct.pollfd, ptr %91, i32 0, i32 1
  store i16 %83, ptr %92, align 4, !tbaa !13
  %93 = load ptr, ptr %6, align 8, !tbaa !25
  %94 = getelementptr inbounds nuw %struct.curl_pollfds, ptr %93, i32 0, i32 1
  %95 = load i32, ptr %94, align 8, !tbaa !32
  %96 = add i32 %95, 1
  store i32 %96, ptr %94, align 8, !tbaa !32
  store i32 0, ptr %5, align 4
  store i32 1, ptr %11, align 4
  br label %97

97:                                               ; preds = %72, %70, %39
  call void @llvm.lifetime.end.p0(i64 4, ptr %10) #6
  %98 = load i32, ptr %5, align 4
  ret i32 %98
}

; Function Attrs: nounwind uwtable
define dso_local i32 @Curl_pollfds_add_sock(ptr noundef %0, i32 noundef %1, i16 noundef signext %2) #0 {
  %4 = alloca ptr, align 8
  %5 = alloca i32, align 4
  %6 = alloca i16, align 2
  store ptr %0, ptr %4, align 8, !tbaa !25
  store i32 %1, ptr %5, align 4, !tbaa !8
  store i16 %2, ptr %6, align 2, !tbaa !31
  %7 = load ptr, ptr %4, align 8, !tbaa !25
  %8 = load i32, ptr %5, align 4, !tbaa !8
  %9 = load i16, ptr %6, align 2, !tbaa !31
  %10 = call i32 @cpfds_add_sock(ptr noundef %7, i32 noundef %8, i16 noundef signext %9, i1 noundef zeroext false)
  ret i32 %10
}