; Function Attrs: nounwind uwtable
define dso_local range(i32 0, 28) i32 @Curl_pollfds_add_sock(ptr noundef captures(none) %0, i32 noundef %1, i16 noundef signext %2) local_unnamed_addr #0 {
  %4 = getelementptr inbounds nuw i8, ptr %0, i64 8
  %5 = load i32, ptr %4, align 8, !tbaa !22
  %6 = getelementptr inbounds nuw i8, ptr %0, i64 12
  %7 = load i32, ptr %6, align 4, !tbaa !20
  %.not.i = icmp ult i32 %5, %7
  br i1 %.not.i, label %.loopexit._crit_edge.i, label %8

.loopexit._crit_edge.i:                           ; preds = %3
  %.pre30.i = load ptr, ptr %0, align 8, !tbaa !16
  br label %26

8:                                                ; preds = %3
  %9 = add i32 %7, 100
  %10 = load ptr, ptr @Curl_ccalloc, align 8, !tbaa !21
  %11 = zext i32 %9 to i64
  %12 = tail call ptr %10(i64 noundef %11, i64 noundef 8) #10
  %.not.i.i = icmp eq ptr %12, null
  br i1 %.not.i.i, label %cpfds_add_sock.exit, label %13

13:                                               ; preds = %8
  %14 = load ptr, ptr %0, align 8, !tbaa !16
  %15 = load i32, ptr %6, align 4, !tbaa !20
  %16 = zext i32 %15 to i64
  %17 = shl nuw nsw i64 %16, 3
  tail call void @llvm.memcpy.p0.p0.i64(ptr nonnull align 4 %12, ptr align 4 %14, i64 %17, i1 false)
  %18 = getelementptr inbounds nuw i8, ptr %0, i64 16
  %19 = load i8, ptr %18, align 8
  %20 = and i8 %19, 1
  %.not15.i.i = icmp eq i8 %20, 0
  br i1 %.not15.i.i, label %cpfds_increase.exit.thread.i, label %21

21:                                               ; preds = %13
  %22 = load ptr, ptr @Curl_cfree, align 8, !tbaa !21
  %23 = load ptr, ptr %0, align 8, !tbaa !16
  tail call void %22(ptr noundef %23) #10
  %.pre.i.i = load i8, ptr %18, align 8
  br label %cpfds_increase.exit.thread.i

cpfds_increase.exit.thread.i:                     ; preds = %21, %13
  %24 = phi i8 [ %.pre.i.i, %21 ], [ %19, %13 ]
  store ptr %12, ptr %0, align 8, !tbaa !16
  store i32 %9, ptr %6, align 4, !tbaa !20
  %25 = or i8 %24, 1
  store i8 %25, ptr %18, align 8
  %.pre31.i = load i32, ptr %4, align 8, !tbaa !22
  br label %26

26:                                               ; preds = %cpfds_increase.exit.thread.i, %.loopexit._crit_edge.i
  %27 = phi i32 [ %5, %.loopexit._crit_edge.i ], [ %.pre31.i, %cpfds_increase.exit.thread.i ]
  %28 = phi ptr [ %.pre30.i, %.loopexit._crit_edge.i ], [ %12, %cpfds_increase.exit.thread.i ]
  %29 = zext i32 %27 to i64
  %30 = getelementptr inbounds nuw %struct.pollfd, ptr %28, i64 %29
  store i32 %1, ptr %30, align 4, !tbaa !8
  %31 = getelementptr inbounds nuw %struct.pollfd, ptr %28, i64 %29, i32 1
  store i16 %2, ptr %31, align 4, !tbaa !11
  %32 = add i32 %27, 1
  store i32 %32, ptr %4, align 8, !tbaa !22
  br label %cpfds_add_sock.exit

cpfds_add_sock.exit:                              ; preds = %8, %26
  %.021.i = phi i32 [ 0, %26 ], [ 27, %8 ]
  ret i32 %.021.i
}